; Function Attrs: mustprogress uwtable
define hidden void @_ZNK2cv7MatOp_T6assignERKNS_7MatExprERNS_3MatEi(ptr nocapture nonnull readnone align 8 %0, ptr noundef nonnull align 8 dereferenceable(352) %1, ptr noundef nonnull align 8 dereferenceable(96) %2, i32 noundef %3) unnamed_addr #8 align 2 personality ptr @__gxx_personality_v0 {
  %5 = alloca %"class.cv::Mat", align 8
  %6 = alloca %"class.cv::_InputArray", align 8
  %7 = alloca %"class.cv::_OutputArray", align 8
  %8 = alloca %"class.cv::_OutputArray", align 8
  call void @_ZN2cv3MatC1Ev(ptr noundef nonnull align 8 dereferenceable(96) %5) #21
  %9 = icmp eq i32 %3, -1
  %.sroa.gep = getelementptr inbounds i8, ptr %2, i64 16
  br i1 %9, label %15, label %10

10:                                               ; preds = %4
  %.sroa.gep22 = getelementptr inbounds i8, ptr %5, i64 16
  %11 = getelementptr inbounds i8, ptr %1, i64 16
  %12 = load i32, ptr %11, align 8
  %13 = and i32 %12, 4095
  %14 = icmp eq i32 %13, %3
  br i1 %14, label %15, label %16

15:                                               ; preds = %10, %4
  br label %16

16:                                               ; preds = %10, %15
  %.sroa.phi = phi ptr [ %.sroa.gep, %15 ], [ %.sroa.gep22, %10 ]
  %17 = phi ptr [ %2, %15 ], [ %5, %10 ]
  %18 = getelementptr inbounds i8, ptr %1, i64 16
  %19 = getelementptr inbounds i8, ptr %6, i64 16
  store i32 0, ptr %19, align 8
  %20 = getelementptr inbounds i8, ptr %6, i64 20
  store i32 0, ptr %20, align 4
  store i32 16842752, ptr %6, align 8
  %21 = getelementptr inbounds i8, ptr %6, i64 8
  store ptr %18, ptr %21, align 8
  %22 = getelementptr inbounds i8, ptr %7, i64 8
  %23 = getelementptr inbounds i8, ptr %7, i64 16
  store i64 0, ptr %23, align 8
  store i32 33619968, ptr %7, align 8
  store ptr %17, ptr %22, align 8
  invoke void @_ZN2cv9transposeERKNS_11_InputArrayERKNS_12_OutputArrayE(ptr noundef nonnull align 8 dereferenceable(24) %6, ptr noundef nonnull align 8 dereferenceable(24) %7)
          to label %24 unwind label %33

24:                                               ; preds = %16
  %25 = load ptr, ptr %.sroa.phi, align 8
  %26 = load ptr, ptr %.sroa.gep, align 8
  %.not = icmp ne ptr %25, %26
  %27 = getelementptr inbounds i8, ptr %1, i64 304
  %28 = load double, ptr %27, align 8
  %29 = fcmp une double %28, 1.000000e+00
  %or.cond = select i1 %.not, i1 true, i1 %29
  br i1 %or.cond, label %30, label %37

30:                                               ; preds = %24
  %31 = getelementptr inbounds i8, ptr %8, i64 8
  %32 = getelementptr inbounds i8, ptr %8, i64 16
  store i64 0, ptr %32, align 8
  store i32 33619968, ptr %8, align 8
  store ptr %2, ptr %31, align 8
  invoke void @_ZNK2cv3Mat9convertToERKNS_12_OutputArrayEidd(ptr noundef nonnull align 8 dereferenceable(96) %17, ptr noundef nonnull align 8 dereferenceable(24) %8, i32 noundef %3, double noundef %28, double noundef 0.000000e+00)
          to label %37 unwind label %35

33:                                               ; preds = %16
  %34 = landingpad { ptr, i32 }
          cleanup
  br label %38

35:                                               ; preds = %30
  %36 = landingpad { ptr, i32 }
          cleanup
  br label %38

37:                                               ; preds = %30, %24
  call void @_ZN2cv3MatD1Ev(ptr noundef nonnull align 8 dereferenceable(96) %5) #21
  ret void

38:                                               ; preds = %33, %35
  %.pn18 = phi { ptr, i32 } [ %36, %35 ], [ %34, %33 ]
  call void @_ZN2cv3MatD1Ev(ptr noundef nonnull align 8 dereferenceable(96) %5) #21
  resume { ptr, i32 } %.pn18
}